target datalayout = "e-m:e-p270:32:32-p271:32:32-p272:64:64-i64:64-i128:128-f80:128-n8:16:32:64-S128"
target triple = "x86_64-pc-linux-gnu"

%"class.icu_77::(anonymous namespace)::SortKeyLevel" = type <{ %"class.icu_77::MaybeStackArray.0", i32, i8, [3 x i8] }>
%"class.icu_77::MaybeStackArray.0" = type <{ ptr, i32, i8, [40 x i8], [3 x i8] }>

; Function Attrs: mustprogress uwtable
define linkonce_odr void @_ZN6icu_7715MaybeStackArrayIhLi40EE12releaseArrayEv(ptr noundef nonnull align 8 dereferenceable(53) %0) #1 comdat align 2 {
  %2 = alloca ptr, align 8
  store ptr %0, ptr %2, align 8, !tbaa !91
  %3 = load ptr, ptr %2, align 8
  %4 = getelementptr inbounds nuw %"class.icu_77::MaybeStackArray.0", ptr %3, i32 0, i32 2
  %5 = load i8, ptr %4, align 4, !tbaa !95
  %6 = icmp ne i8 %5, 0
  br i1 %6, label %7, label %10

7:                                                ; preds = %1
  %8 = getelementptr inbounds nuw %"class.icu_77::MaybeStackArray.0", ptr %3, i32 0, i32 0
  %9 = load ptr, ptr %8, align 8, !tbaa !93
  call void @uprv_free_77(ptr noundef %9)
  br label %10

10:                                               ; preds = %7, %1
  ret void
}

; Function Attrs: mustprogress nounwind uwtable
define linkonce_odr void @_ZN6icu_7715MaybeStackArrayIhLi40EED2Ev(ptr noundef nonnull align 8 dereferenceable(53) %0) unnamed_addr #0 comdat align 2 personality ptr @__gxx_personality_v0 {
  %2 = alloca ptr, align 8
  store ptr %0, ptr %2, align 8, !tbaa !91
  %3 = load ptr, ptr %2, align 8
  invoke void @_ZN6icu_7715MaybeStackArrayIhLi40EE12releaseArrayEv(ptr noundef nonnull align 8 dereferenceable(53) %3)
          to label %4 unwind label %5

4:                                                ; preds = %1
  ret void

5:                                                ; preds = %1
  %6 = landingpad { ptr, i32 }
          catch ptr null
  %7 = extractvalue { ptr, i32 } %6, 0
  call void @__clang_call_terminate(ptr %7) #13
  unreachable
}

; Function Attrs: mustprogress nounwind uwtable
define internal void @_ZN6icu_7712_GLOBAL__N_112SortKeyLevelD2Ev(ptr noundef nonnull align 8 dereferenceable(61) %0) unnamed_addr #0 align 2 {
  %2 = alloca ptr, align 8
  store ptr %0, ptr %2, align 8, !tbaa !65
  %3 = load ptr, ptr %2, align 8
  %4 = getelementptr inbounds nuw %"class.icu_77::(anonymous namespace)::SortKeyLevel", ptr %3, i32 0, i32 0
  call void @_ZN6icu_7715MaybeStackArrayIhLi40EED2Ev(ptr noundef nonnull align 8 dereferenceable(53) %4) #11
  ret void
}