; Function Attrs: mustprogress nounwind uwtable
define internal fastcc void @_ZN6icu_7712_GLOBAL__N_112SortKeyLevelD2Ev(ptr %.0.val, i8 %.12.val) unnamed_addr #0 align 2 personality ptr @__gxx_personality_v0 {
  %.not.i.i = icmp eq i8 %.12.val, 0
  br i1 %.not.i.i, label %_ZN6icu_7715MaybeStackArrayIhLi40EED2Ev.exit, label %1

1:                                                ; preds = %0
  invoke void @uprv_free_77(ptr noundef %.0.val)
          to label %_ZN6icu_7715MaybeStackArrayIhLi40EED2Ev.exit unwind label %2

2:                                                ; preds = %1
  %3 = landingpad { ptr, i32 }
          catch ptr null
  %4 = extractvalue { ptr, i32 } %3, 0
  tail call void @__clang_call_terminate(ptr %4) #17
  unreachable

_ZN6icu_7715MaybeStackArrayIhLi40EED2Ev.exit:     ; preds = %0, %1
  ret void
}